; Function Attrs: nounwind uwtable
define ptr @l___private_Lean_Meta_Tactic_Grind_ExtAttr_0__Lean_Meta_Grind_eraseDecl(ptr noundef %0, ptr noundef %1, ptr noundef %2, ptr noundef %3, ptr noundef %4) local_unnamed_addr #0 {
  %6 = ptrtoint ptr %0 to i64
  %7 = and i64 %6, 1
  %.not = icmp eq i64 %7, 0
  br i1 %.not, label %8, label %lean_inc.exit.thread

8:                                                ; preds = %5
  %.val.i = load i32, ptr %0, align 4, !tbaa !8
  %9 = icmp sgt i32 %.val.i, 0
  br i1 %9, label %10, label %12, !prof !11

10:                                               ; preds = %8
  %11 = add nuw i32 %.val.i, 1
  store i32 %11, ptr %0, align 4, !tbaa !8
  br label %lean_inc.exit

12:                                               ; preds = %8
  %.not.i30 = icmp eq i32 %.val.i, 0
  br i1 %.not.i30, label %lean_inc.exit, label %13

13:                                               ; preds = %12
  tail call void @lean_inc_ref_cold(ptr noundef nonnull %0) #3
  br label %lean_inc.exit

lean_inc.exit:                                    ; preds = %13, %12, %10
  %14 = tail call zeroext i8 @l_Lean_PersistentHashMap_contains___at_Lean_NameSSet_contains___spec__2(ptr noundef nonnull %0, ptr noundef %1) #3
  %15 = icmp eq i8 %14, 0
  br i1 %15, label %18, label %41

lean_inc.exit.thread:                             ; preds = %5
  %16 = tail call zeroext i8 @l_Lean_PersistentHashMap_contains___at_Lean_NameSSet_contains___spec__2(ptr noundef %0, ptr noundef %1) #3
  %17 = icmp eq i8 %16, 0
  br i1 %17, label %lean_dec.exit27, label %41

18:                                               ; preds = %lean_inc.exit
  %19 = load i32, ptr %0, align 4, !tbaa !8
  %20 = icmp sgt i32 %19, 1
  br i1 %20, label %21, label %23, !prof !11

21:                                               ; preds = %18
  %22 = add nsw i32 %19, -1
  store i32 %22, ptr %0, align 4, !tbaa !8
  br label %lean_dec.exit27

23:                                               ; preds = %18
  %.not.i = icmp eq i32 %19, 0
  br i1 %.not.i, label %lean_dec.exit27, label %24

24:                                               ; preds = %23
  tail call void @lean_dec_ref_cold(ptr noundef nonnull %0) #3
  br label %lean_dec.exit27

lean_dec.exit27:                                  ; preds = %lean_inc.exit.thread, %24, %23, %21
  %25 = tail call ptr @l_Lean_MessageData_ofName(ptr noundef %1) #3
  %26 = load ptr, ptr @l___private_Lean_Meta_Tactic_Grind_ExtAttr_0__Lean_Meta_Grind_eraseDecl___closed__2, align 8, !tbaa !4
  tail call void @lean_inc_heartbeat() #3
  %27 = tail call noalias ptr @mi_malloc_small(i64 noundef 24) #3
  %28 = icmp eq ptr %27, null
  br i1 %28, label %29, label %lean_alloc_ctor.exit

29:                                               ; preds = %lean_dec.exit27
  tail call void @lean_internal_panic_out_of_memory() #4
  unreachable

lean_alloc_ctor.exit:                             ; preds = %lean_dec.exit27
  %30 = getelementptr inbounds nuw i8, ptr %27, i64 4
  store i32 1, ptr %27, align 4, !tbaa !8
  store i32 117571608, ptr %30, align 4
  %31 = getelementptr inbounds nuw i8, ptr %27, i64 8
  store ptr %26, ptr %31, align 8, !tbaa !4
  %32 = getelementptr inbounds nuw i8, ptr %27, i64 16
  store ptr %25, ptr %32, align 8, !tbaa !4
  %33 = load ptr, ptr @l___private_Lean_Meta_Tactic_Grind_ExtAttr_0__Lean_Meta_Grind_eraseDecl___closed__4, align 8, !tbaa !4
  tail call void @lean_inc_heartbeat() #3
  %34 = tail call noalias ptr @mi_malloc_small(i64 noundef 24) #3
  %35 = icmp eq ptr %34, null
  br i1 %35, label %36, label %lean_alloc_ctor.exit31

36:                                               ; preds = %lean_alloc_ctor.exit
  tail call void @lean_internal_panic_out_of_memory() #4
  unreachable

lean_alloc_ctor.exit31:                           ; preds = %lean_alloc_ctor.exit
  %37 = getelementptr inbounds nuw i8, ptr %34, i64 4
  store i32 1, ptr %34, align 4, !tbaa !8
  store i32 117571608, ptr %37, align 4
  %38 = getelementptr inbounds nuw i8, ptr %34, i64 8
  store ptr %27, ptr %38, align 8, !tbaa !4
  %39 = getelementptr inbounds nuw i8, ptr %34, i64 16
  store ptr %33, ptr %39, align 8, !tbaa !4
  %40 = tail call ptr @l_Lean_throwError___at___private_Lean_Meta_Tactic_Grind_ExtAttr_0__Lean_Meta_Grind_eraseDecl___spec__1(ptr noundef nonnull %34, ptr noundef %2, ptr noundef %3, ptr noundef %4)
  br label %58

41:                                               ; preds = %lean_inc.exit.thread, %lean_inc.exit
  %42 = tail call ptr @l_Lean_PersistentHashMap_erase___at_Lean_Meta_Ext_initFn____x40_Lean_Meta_Tactic_Ext___hyg_310____spec__14(ptr noundef %0, ptr noundef %1) #3
  %43 = ptrtoint ptr %1 to i64
  %44 = and i64 %43, 1
  %.not33 = icmp eq i64 %44, 0
  br i1 %.not33, label %45, label %lean_dec.exit

45:                                               ; preds = %41
  %46 = load i32, ptr %1, align 4, !tbaa !8
  %47 = icmp sgt i32 %46, 1
  br i1 %47, label %48, label %50, !prof !11

48:                                               ; preds = %45
  %49 = add nsw i32 %46, -1
  store i32 %49, ptr %1, align 4, !tbaa !8
  br label %lean_dec.exit

50:                                               ; preds = %45
  %.not.i28 = icmp eq i32 %46, 0
  br i1 %.not.i28, label %lean_dec.exit, label %51

51:                                               ; preds = %50
  tail call void @lean_dec_ref_cold(ptr noundef nonnull %1) #3
  br label %lean_dec.exit

lean_dec.exit:                                    ; preds = %51, %50, %48, %41
  tail call void @lean_inc_heartbeat() #3
  %52 = tail call noalias ptr @mi_malloc_small(i64 noundef 24) #3
  %53 = icmp eq ptr %52, null
  br i1 %53, label %54, label %lean_alloc_ctor.exit32

54:                                               ; preds = %lean_dec.exit
  tail call void @lean_internal_panic_out_of_memory() #4
  unreachable

lean_alloc_ctor.exit32:                           ; preds = %lean_dec.exit
  %55 = getelementptr inbounds nuw i8, ptr %52, i64 4
  store i32 1, ptr %52, align 4, !tbaa !8
  store i32 131096, ptr %55, align 4
  %56 = getelementptr inbounds nuw i8, ptr %52, i64 8
  store ptr %42, ptr %56, align 8, !tbaa !4
  %57 = getelementptr inbounds nuw i8, ptr %52, i64 16
  store ptr %4, ptr %57, align 8, !tbaa !4
  br label %58

58:                                               ; preds = %lean_alloc_ctor.exit32, %lean_alloc_ctor.exit31
  %.0 = phi ptr [ %40, %lean_alloc_ctor.exit31 ], [ %52, %lean_alloc_ctor.exit32 ]
  ret ptr %.0
}